(dp1
S'OriginalConfig'
p2
ccopy_reg
_reconstructor
p3
(cWMCore.Configuration
Configuration
p4
c__builtin__
object
p5
NtRp6
(dp7
S'Site'
p8
g3
(cWMCore.Configuration
ConfigSection
p9
g5
NtRp10
(dp11
S'_internal_skipChecks'
p12
I00
sS'_internal_documentation'
p13
S''
sS'_internal_settings'
p14
c__builtin__
set
p15
((lp16
S'storageSite'
p17
atRp18
sS'_internal_name'
p19
g8
sS'_internal_docstrings'
p20
(dp21
sS'_internal_children'
p22
g15
((ltRp23
sg17
S'T2_CH_CERN'
p24
sS'_internal_parent_ref'
p25
NsbsS'_internal_sections'
p26
(lp27
S'General'
p28
aS'JobType'
p29
aS'Data'
p30
ag8
aS'User'
p31
aS'Debug'
p32
asg28
g3
(g9
g5
NtRp33
(dp34
S'transferLogs'
p35
I00
sg12
I00
sg13
S''
sg14
g15
((lp36
g35
aS'transferOutputs'
p37
aS'workArea'
p38
aS'requestName'
p39
atRp40
sg19
g28
sg20
(dp41
sg37
I01
sg22
g15
((ltRp42
sg39
S'SinglePhoton_FlatPt-8to150_PU200'
p43
sg25
Nsg38
S'ntuples2/v47/SinglePhoton_FlatPt-8to150_PU200'
p44
sbsS'_internal_webapps'
p45
(lp46
sg31
g3
(g9
g5
NtRp47
(dp48
g12
I00
sg13
S''
sg14
g15
((ltRp49
sg19
g31
sg20
(dp50
sg22
g15
((ltRp51
sg25
NsbsS'_internal_components'
p52
(lp53
sg32
g3
(g9
g5
NtRp54
(dp55
g12
I00
sg13
S''
sg14
g15
((ltRp56
sg19
g32
sg20
(dp57
sg22
g15
((ltRp58
sg25
Nsbsg30
g3
(g9
g5
NtRp59
(dp60
S'inputDataset'
p61
S'/SinglePhoton_FlatPt-8to150/PhaseIIMTDTDRAutumn18DR-PU200_103X_upgrade2023_realistic_v2-v1/FEVT'
p62
sS'outputDatasetTag'
p63
S'SinglePhoton_FlatPt-8to150_PU200_v47'
p64
sg12
I00
sS'splitting'
p65
S'Automatic'
p66
sS'unitsPerJob'
p67
I200
sg13
S''
sg14
g15
((lp68
g61
ag63
aS'totalUnits'
p69
ag67
aS'ignoreLocality'
p70
aS'inputDBS'
p71
ag65
aS'outLFNDirBase'
p72
aS'publication'
p73
atRp74
sg70
I00
sg19
g30
sg71
S'global'
p75
sg20
(dp76
sg22
g15
((ltRp77
sg73
I00
sg72
S'/store/user/jheikkil/TRG_retry/'
p78
sg25
Nsg69
I200000
sbsg29
g3
(g9
g5
NtRp79
(dp80
g12
I00
sg13
S''
sg14
g15
((lp81
S'psetName'
p82
aS'pluginName'
p83
aS'maxMemoryMB'
p84
aS'allowUndistributedCMSSW'
p85
atRp86
sg19
g29
sg20
(dp87
sg83
S'Analysis'
p88
sg22
g15
((ltRp89
sg85
I01
sg82
S'ntuples2/v47/SinglePhoton_FlatPt-8to150_PU200/conf/input_cfg.py'
p90
sg25
Nsg84
I2500
sbsbsS'voGroup'
p91
S''
sS'Server'
p92
S'cmsweb.cern.ch'
p93
sS'instance'
p94
S'prod'
p95
sS'RequestName'
p96
V200225_161654:jheikkil_crab_SinglePhoton_FlatPt-8to150_PU200
p97
sS'voRole'
p98
S'NULL'
p99
sS'Port'
p100
S''
s.